target datalayout = "e-m:e-p270:32:32-p271:32:32-p272:64:64-i64:64-i128:128-f80:128-n8:16:32:64-S128"
target triple = "x86_64-pc-linux-gnu"

%union.anon.0 = type { ptr }
%struct.AVFilterContext = type { ptr, ptr, ptr, ptr, ptr, i32, ptr, ptr, i32, ptr, ptr, i32, i32, ptr, ptr, ptr, ptr, i32, ptr, i32, i32 }
%struct.AVFilterLink = type { ptr, ptr, ptr, ptr, i32, i32, i32, i32, %struct.AVRational, i32, i32, i32, %struct.AVChannelLayout, %struct.AVRational, ptr, i32, %struct.AVFilterFormatsConfig, %struct.AVFilterFormatsConfig }
%struct.AVChannelLayout = type { i32, i32, %union.anon, ptr }
%union.anon = type { i64 }
%struct.AVFilterFormatsConfig = type { ptr, ptr, ptr, ptr, ptr }
%struct.AVRational = type { i32, i32 }
%struct.FFFilter = type { %struct.AVFilter, i8, i8, i8, ptr, ptr, ptr, %union.anon.0, i32, i32, ptr, ptr }
%struct.AVFilter = type { ptr, ptr, ptr, ptr, ptr, i32 }

@.str = private unnamed_addr constant [30 x i8] c"Assertion %s failed at %s:%d\0A\00", align 1
@.str.1 = private unnamed_addr constant [44 x i8] c"fffilter(ctx->filter)->activate == activate\00", align 1
@.str.2 = private unnamed_addr constant [25 x i8] c"libavfilter/buffersink.c\00", align 1

; Function Attrs: inlinehint nounwind uwtable
define internal ptr @fffilter(ptr noundef %0) #1 {
  %2 = alloca ptr, align 8
  store ptr %0, ptr %2, align 8, !tbaa !62
  %3 = load ptr, ptr %2, align 8, !tbaa !62
  ret ptr %3
}

; Function Attrs: nounwind uwtable
define i32 @av_buffersink_get_format(ptr noundef %0) #0 {
  %2 = alloca ptr, align 8
  store ptr %0, ptr %2, align 8, !tbaa !4
  br label %3

3:                                                ; preds = %1
  %4 = load ptr, ptr %2, align 8, !tbaa !4
  %5 = getelementptr inbounds nuw %struct.AVFilterContext, ptr %4, i32 0, i32 1
  %6 = load ptr, ptr %5, align 8, !tbaa !57
  %7 = call ptr @fffilter(ptr noundef %6)
  %8 = getelementptr inbounds nuw %struct.FFFilter, ptr %7, i32 0, i32 11
  %9 = load ptr, ptr %8, align 8, !tbaa !58
  %10 = icmp eq ptr %9, @activate
  br i1 %10, label %12, label %11

11:                                               ; preds = %3
  call void (ptr, i32, ptr, ...) @av_log(ptr noundef null, i32 noundef 0, ptr noundef @.str, ptr noundef @.str.1, ptr noundef @.str.2, i32 noundef 324)
  call void @abort() #10
  unreachable

12:                                               ; preds = %3
  br label %13

13:                                               ; preds = %12
  %14 = load ptr, ptr %2, align 8, !tbaa !4
  %15 = getelementptr inbounds nuw %struct.AVFilterContext, ptr %14, i32 0, i32 4
  %16 = load ptr, ptr %15, align 8, !tbaa !13
  %17 = getelementptr inbounds ptr, ptr %16, i64 0
  %18 = load ptr, ptr %17, align 8, !tbaa !25
  %19 = getelementptr inbounds nuw %struct.AVFilterLink, ptr %18, i32 0, i32 5
  %20 = load i32, ptr %19, align 4, !tbaa !67
  ret i32 %20
}